; Function Attrs: nounwind memory(readwrite, argmem: read) uwtable
define internal fastcc range(i32 0, 2) i32 @arkode_butcher_order6m(ptr noundef readonly captures(address_is_null) %0, ptr noundef readonly captures(address_is_null) %1, ptr noundef readonly captures(address_is_null) %2, ptr noundef readonly captures(address_is_null) %3, ptr noundef readonly captures(address_is_null) %4, ptr noundef readonly captures(address_is_null) %5, i32 noundef %6) unnamed_addr #10 {
  %8 = sext i32 %6 to i64
  %9 = tail call noalias ptr @calloc(i64 noundef %8, i64 noundef 8) #16
  %10 = tail call noalias ptr @calloc(i64 noundef %8, i64 noundef 8) #16
  %11 = tail call noalias ptr @calloc(i64 noundef %8, i64 noundef 8) #16
  %12 = icmp eq ptr %4, null
  %13 = icmp eq ptr %5, null
  %or.cond.i = or i1 %12, %13
  %14 = icmp eq ptr %9, null
  %or.cond3.i = or i1 %or.cond.i, %14
  %15 = icmp slt i32 %6, 1
  %or.cond5.i = or i1 %15, %or.cond3.i
  br i1 %or.cond5.i, label %arkode_butcher_mv.exit, label %.preheader.us.preheader.i

.preheader.us.preheader.i:                        ; preds = %7
  %16 = zext nneg i32 %6 to i64
  %17 = shl nuw nsw i64 %16, 3
  br label %.preheader.us.i

.preheader.us.i:                                  ; preds = %._crit_edge.us.i, %.preheader.us.preheader.i
  %indvars.iv40.i = phi i64 [ 0, %.preheader.us.preheader.i ], [ %indvars.iv.next41.i, %._crit_edge.us.i ]
  %18 = getelementptr inbounds nuw ptr, ptr %4, i64 %indvars.iv40.i
  %19 = load ptr, ptr %18, align 8, !tbaa !12
  %20 = getelementptr inbounds nuw double, ptr %9, i64 %indvars.iv40.i
  %.promoted.us.i = load double, ptr %20, align 8, !tbaa !18
  br label %21

21:                                               ; preds = %21, %.preheader.us.i
  %indvars.iv.i = phi i64 [ 0, %.preheader.us.i ], [ %indvars.iv.next.i, %21 ]
  %22 = phi double [ %.promoted.us.i, %.preheader.us.i ], [ %27, %21 ]
  %23 = getelementptr inbounds nuw double, ptr %19, i64 %indvars.iv.i
  %24 = load double, ptr %23, align 8, !tbaa !18
  %25 = getelementptr inbounds nuw double, ptr %5, i64 %indvars.iv.i
  %26 = load double, ptr %25, align 8, !tbaa !18
  %27 = tail call double @llvm.fmuladd.f64(double %24, double %26, double %22)
  %indvars.iv.next.i = add nuw nsw i64 %indvars.iv.i, 1
  %exitcond.not.i = icmp eq i64 %indvars.iv.next.i, %16
  br i1 %exitcond.not.i, label %._crit_edge.us.i, label %21

._crit_edge.us.i:                                 ; preds = %21
  store double %27, ptr %20, align 8, !tbaa !18
  %indvars.iv.next41.i = add nuw nsw i64 %indvars.iv40.i, 1
  %exitcond44.not.i = icmp eq i64 %indvars.iv.next41.i, %16
  br i1 %exitcond44.not.i, label %28, label %.preheader.us.i

arkode_butcher_mv.exit:                           ; preds = %7
  tail call void @free(ptr noundef %9) #17
  tail call void @free(ptr noundef %10) #17
  tail call void @free(ptr noundef %11) #17
  br label %arkode_butcher_dot.exit

28:                                               ; preds = %._crit_edge.us.i
  %29 = icmp eq ptr %2, null
  %30 = icmp eq ptr %3, null
  %or.cond.i40 = or i1 %29, %30
  %31 = icmp eq ptr %10, null
  %or.cond3.i41 = or i1 %or.cond.i40, %31
  br i1 %or.cond3.i41, label %arkode_butcher_mv.exit54, label %.preheader.us.i44

.preheader.us.i44:                                ; preds = %28, %._crit_edge.us.i50
  %indvars.iv40.i45 = phi i64 [ %indvars.iv.next41.i51, %._crit_edge.us.i50 ], [ 0, %28 ]
  %32 = getelementptr inbounds nuw ptr, ptr %2, i64 %indvars.iv40.i45
  %33 = load ptr, ptr %32, align 8, !tbaa !12
  %34 = getelementptr inbounds nuw double, ptr %10, i64 %indvars.iv40.i45
  %.promoted.us.i46 = load double, ptr %34, align 8, !tbaa !18
  br label %35

35:                                               ; preds = %35, %.preheader.us.i44
  %indvars.iv.i47 = phi i64 [ 0, %.preheader.us.i44 ], [ %indvars.iv.next.i48, %35 ]
  %36 = phi double [ %.promoted.us.i46, %.preheader.us.i44 ], [ %41, %35 ]
  %37 = getelementptr inbounds nuw double, ptr %33, i64 %indvars.iv.i47
  %38 = load double, ptr %37, align 8, !tbaa !18
  %39 = getelementptr inbounds nuw double, ptr %3, i64 %indvars.iv.i47
  %40 = load double, ptr %39, align 8, !tbaa !18
  %41 = tail call double @llvm.fmuladd.f64(double %38, double %40, double %36)
  %indvars.iv.next.i48 = add nuw nsw i64 %indvars.iv.i47, 1
  %exitcond.not.i49 = icmp eq i64 %indvars.iv.next.i48, %16
  br i1 %exitcond.not.i49, label %._crit_edge.us.i50, label %35

._crit_edge.us.i50:                               ; preds = %35
  store double %41, ptr %34, align 8, !tbaa !18
  %indvars.iv.next41.i51 = add nuw nsw i64 %indvars.iv40.i45, 1
  %exitcond44.not.i52 = icmp eq i64 %indvars.iv.next41.i51, %16
  br i1 %exitcond44.not.i52, label %42, label %.preheader.us.i44

arkode_butcher_mv.exit54:                         ; preds = %28
  tail call void @free(ptr noundef nonnull %9) #17
  tail call void @free(ptr noundef %10) #17
  tail call void @free(ptr noundef %11) #17
  br label %arkode_butcher_dot.exit

42:                                               ; preds = %._crit_edge.us.i50
  %43 = icmp eq ptr %11, null
  br i1 %43, label %arkode_butcher_vv.exit, label %.preheader.i

.preheader.i:                                     ; preds = %42, %.preheader.i
  %indvars.iv.i58 = phi i64 [ %indvars.iv.next.i59, %.preheader.i ], [ 0, %42 ]
  %44 = getelementptr inbounds nuw double, ptr %9, i64 %indvars.iv.i58
  %45 = load double, ptr %44, align 8, !tbaa !18
  %46 = getelementptr inbounds nuw double, ptr %10, i64 %indvars.iv.i58
  %47 = load double, ptr %46, align 8, !tbaa !18
  %48 = fmul double %45, %47
  %49 = getelementptr inbounds nuw double, ptr %11, i64 %indvars.iv.i58
  store double %48, ptr %49, align 8, !tbaa !18
  %indvars.iv.next.i59 = add nuw nsw i64 %indvars.iv.i58, 1
  %exitcond.not.i60 = icmp eq i64 %indvars.iv.next.i59, %16
  br i1 %exitcond.not.i60, label %50, label %.preheader.i

arkode_butcher_vv.exit:                           ; preds = %42
  tail call void @free(ptr noundef %9) #17
  tail call void @free(ptr noundef nonnull %10) #17
  br label %arkode_butcher_dot.exit

50:                                               ; preds = %.preheader.i
  %51 = icmp eq ptr %1, null
  br i1 %51, label %arkode_butcher_mv.exit75, label %.preheader.us.preheader.i64

.preheader.us.preheader.i64:                      ; preds = %50
  tail call void @llvm.memset.p0.i64(ptr nonnull align 8 %9, i8 0, i64 %17, i1 false), !tbaa !18
  br label %.preheader.us.i65

.preheader.us.i65:                                ; preds = %._crit_edge.us.i71, %.preheader.us.preheader.i64
  %indvars.iv40.i66 = phi i64 [ 0, %.preheader.us.preheader.i64 ], [ %indvars.iv.next41.i72, %._crit_edge.us.i71 ]
  %52 = getelementptr inbounds nuw ptr, ptr %1, i64 %indvars.iv40.i66
  %53 = load ptr, ptr %52, align 8, !tbaa !12
  %54 = getelementptr inbounds nuw double, ptr %9, i64 %indvars.iv40.i66
  %.promoted.us.i67 = load double, ptr %54, align 8, !tbaa !18
  br label %55

55:                                               ; preds = %55, %.preheader.us.i65
  %indvars.iv.i68 = phi i64 [ 0, %.preheader.us.i65 ], [ %indvars.iv.next.i69, %55 ]
  %56 = phi double [ %.promoted.us.i67, %.preheader.us.i65 ], [ %61, %55 ]
  %57 = getelementptr inbounds nuw double, ptr %53, i64 %indvars.iv.i68
  %58 = load double, ptr %57, align 8, !tbaa !18
  %59 = getelementptr inbounds nuw double, ptr %11, i64 %indvars.iv.i68
  %60 = load double, ptr %59, align 8, !tbaa !18
  %61 = tail call double @llvm.fmuladd.f64(double %58, double %60, double %56)
  %indvars.iv.next.i69 = add nuw nsw i64 %indvars.iv.i68, 1
  %exitcond.not.i70 = icmp eq i64 %indvars.iv.next.i69, %16
  br i1 %exitcond.not.i70, label %._crit_edge.us.i71, label %55

._crit_edge.us.i71:                               ; preds = %55
  store double %61, ptr %54, align 8, !tbaa !18
  %indvars.iv.next41.i72 = add nuw nsw i64 %indvars.iv40.i66, 1
  %exitcond44.not.i73 = icmp eq i64 %indvars.iv.next41.i72, %16
  br i1 %exitcond44.not.i73, label %62, label %.preheader.us.i65

arkode_butcher_mv.exit75:                         ; preds = %50
  tail call void @free(ptr noundef nonnull %9) #17
  tail call void @free(ptr noundef nonnull %10) #17
  tail call void @free(ptr noundef nonnull %11) #17
  br label %arkode_butcher_dot.exit

62:                                               ; preds = %._crit_edge.us.i71
  %63 = icmp eq ptr %0, null
  br i1 %63, label %arkode_butcher_dot.exit, label %.preheader

.preheader:                                       ; preds = %62, %.preheader
  %indvars.iv.i79 = phi i64 [ %indvars.iv.next.i80, %.preheader ], [ 0, %62 ]
  %64 = phi double [ %69, %.preheader ], [ 0.000000e+00, %62 ]
  %65 = getelementptr inbounds nuw double, ptr %0, i64 %indvars.iv.i79
  %66 = load double, ptr %65, align 8, !tbaa !18
  %67 = getelementptr inbounds nuw double, ptr %9, i64 %indvars.iv.i79
  %68 = load double, ptr %67, align 8, !tbaa !18
  %69 = tail call double @llvm.fmuladd.f64(double %66, double %68, double %64)
  %indvars.iv.next.i80 = add nuw nsw i64 %indvars.iv.i79, 1
  %exitcond.not.i81 = icmp eq i64 %indvars.iv.next.i80, %16
  br i1 %exitcond.not.i81, label %70, label %.preheader

70:                                               ; preds = %.preheader
  tail call void @free(ptr noundef nonnull %9) #17
  tail call void @free(ptr noundef %10) #17
  tail call void @free(ptr noundef %11) #17
  %71 = fadd double %69, 0xBF81111111111111
  %72 = tail call double @llvm.fabs.f64(double %71)
  %73 = fcmp ule double %72, 0x3E50000000000000
  %74 = zext i1 %73 to i32
  br label %arkode_butcher_dot.exit

arkode_butcher_dot.exit:                          ; preds = %62, %70, %arkode_butcher_mv.exit75, %arkode_butcher_vv.exit, %arkode_butcher_mv.exit54, %arkode_butcher_mv.exit
  %.0 = phi i32 [ 0, %arkode_butcher_mv.exit ], [ 0, %arkode_butcher_mv.exit54 ], [ 0, %arkode_butcher_vv.exit ], [ 0, %arkode_butcher_mv.exit75 ], [ %74, %70 ], [ 0, %62 ]
  ret i32 %.0
}